; Function Attrs: mustprogress uwtable
define hidden void @_ZN4cvc58internal6theory12PluginModule19notifyLemmaInternalERKNS0_12NodeTemplateILb1EEE(ptr noundef nonnull readonly align 8 captures(none) dereferenceable(160) %0, ptr noundef nonnull align 8 dereferenceable(8) %1) local_unnamed_addr #4 align 2 personality ptr @__gxx_personality_v0 {
  %3 = alloca %"class.cvc5::internal::NodeTemplate", align 8
  call void @llvm.lifetime.start.p0(i64 8, ptr nonnull %3) #15
  %4 = getelementptr inbounds nuw i8, ptr %0, i64 8
  %5 = load ptr, ptr %4, align 8, !tbaa !44
  call void @_ZNK4cvc58internal3Env18getSharableFormulaERKNS0_12NodeTemplateILb1EEE(ptr dead_on_unwind nonnull writable sret(%"class.cvc5::internal::NodeTemplate") align 8 %3, ptr noundef nonnull align 8 dereferenceable(696) %5, ptr noundef nonnull align 8 dereferenceable(8) %1)
  %6 = load ptr, ptr %3, align 8, !tbaa !37
  %7 = load atomic i8, ptr @_ZGVZN4cvc58internal4expr9NodeValue4nullEvE6s_null acquire, align 8
  %8 = icmp eq i8 %7, 0
  br i1 %8, label %9, label %17, !prof !48

9:                                                ; preds = %2
  %10 = call i32 @__cxa_guard_acquire(ptr nonnull @_ZGVZN4cvc58internal4expr9NodeValue4nullEvE6s_null) #15
  %.not.i.i = icmp eq i32 %10, 0
  br i1 %.not.i.i, label %17, label %11

11:                                               ; preds = %9
  %12 = invoke noalias noundef nonnull dereferenceable(24) ptr @_Znwm(i64 noundef 24) #18
          to label %13 unwind label %15

13:                                               ; preds = %11
  store i64 1152920405095219200, ptr %12, align 8
  %14 = getelementptr inbounds nuw i8, ptr %12, i64 8
  call void @llvm.memset.p0.i64(ptr noundef nonnull align 8 dereferenceable(16) %14, i8 0, i64 16, i1 false)
  store ptr %12, ptr @_ZZN4cvc58internal4expr9NodeValue4nullEvE6s_null, align 8, !tbaa !49
  call void @__cxa_guard_release(ptr nonnull @_ZGVZN4cvc58internal4expr9NodeValue4nullEvE6s_null) #15
  br label %17

15:                                               ; preds = %11
  %16 = landingpad { ptr, i32 }
          cleanup
  call void @__cxa_guard_abort(ptr nonnull @_ZGVZN4cvc58internal4expr9NodeValue4nullEvE6s_null) #15
  br label %.body

17:                                               ; preds = %13, %9, %2
  %18 = load ptr, ptr @_ZZN4cvc58internal4expr9NodeValue4nullEvE6s_null, align 8, !tbaa !49
  %19 = icmp eq ptr %6, %18
  br i1 %19, label %28, label %20

20:                                               ; preds = %17
  %21 = getelementptr inbounds nuw i8, ptr %0, i64 152
  %22 = load ptr, ptr %21, align 8, !tbaa !19
  %23 = load ptr, ptr %22, align 8, !tbaa !3
  %24 = getelementptr inbounds nuw i8, ptr %23, i64 32
  %25 = load ptr, ptr %24, align 8
  invoke void %25(ptr noundef nonnull align 8 dereferenceable(16) %22, ptr noundef nonnull align 8 dereferenceable(8) %3)
          to label %28 unwind label %26

26:                                               ; preds = %20
  %27 = landingpad { ptr, i32 }
          cleanup
  br label %.body

.body:                                            ; preds = %15, %26
  %eh.lpad-body = phi { ptr, i32 } [ %27, %26 ], [ %16, %15 ]
  call void @_ZN4cvc58internal12NodeTemplateILb1EED2Ev(ptr noundef nonnull align 8 dereferenceable(8) %3) #15
  call void @llvm.lifetime.end.p0(i64 8, ptr nonnull %3) #15
  resume { ptr, i32 } %eh.lpad-body

28:                                               ; preds = %20, %17
  %29 = load ptr, ptr %3, align 8, !tbaa !37
  %30 = load i64, ptr %29, align 8
  %31 = and i64 %30, 1152920405095219200
  %.not.i.i3 = icmp eq i64 %31, 1152920405095219200
  br i1 %.not.i.i3, label %_ZN4cvc58internal12NodeTemplateILb1EED2Ev.exit, label %32, !prof !40

32:                                               ; preds = %28
  %33 = add i64 %30, 1152920405095219200
  %34 = and i64 %33, 1152920405095219200
  %35 = and i64 %30, -1152920405095219201
  %36 = or disjoint i64 %34, %35
  store i64 %36, ptr %29, align 8
  %37 = icmp eq i64 %34, 0
  br i1 %37, label %38, label %_ZN4cvc58internal12NodeTemplateILb1EED2Ev.exit, !prof !40

38:                                               ; preds = %32
  invoke void @_ZN4cvc58internal4expr9NodeValue15markForDeletionEv(ptr noundef nonnull align 8 dereferenceable(24) %29)
          to label %_ZN4cvc58internal12NodeTemplateILb1EED2Ev.exit unwind label %39

39:                                               ; preds = %38
  %40 = landingpad { ptr, i32 }
          catch ptr null
  %41 = extractvalue { ptr, i32 } %40, 0
  call void @__clang_call_terminate(ptr %41) #17
  unreachable

_ZN4cvc58internal12NodeTemplateILb1EED2Ev.exit:   ; preds = %28, %32, %38
  call void @llvm.lifetime.end.p0(i64 8, ptr nonnull %3) #15
  ret void
}